target datalayout = "e-m:e-p270:32:32-p271:32:32-p272:64:64-i64:64-i128:128-f80:128-n8:16:32:64-S128"
target triple = "x86_64-pc-linux-gnu"

; Function Attrs: nounwind uwtable
define dso_local i64 @ZSTD_crossEntropyCost(ptr noundef %0, i32 noundef %1, ptr noundef %2, i32 noundef %3) #0 {
  %5 = alloca ptr, align 8
  %6 = alloca i32, align 4
  %7 = alloca ptr, align 8
  %8 = alloca i32, align 4
  %9 = alloca i32, align 4
  %10 = alloca i64, align 8
  %11 = alloca i32, align 4
  %12 = alloca i32, align 4
  %13 = alloca i32, align 4
  store ptr %0, ptr %5, align 8, !tbaa !19
  store i32 %1, ptr %6, align 4, !tbaa !9
  store ptr %2, ptr %7, align 8, !tbaa !4
  store i32 %3, ptr %8, align 4, !tbaa !9
  call void @llvm.lifetime.start.p0(i64 4, ptr %9) #7
  %14 = load i32, ptr %6, align 4, !tbaa !9
  %15 = sub i32 8, %14
  store i32 %15, ptr %9, align 4, !tbaa !9
  call void @llvm.lifetime.start.p0(i64 8, ptr %10) #7
  store i64 0, ptr %10, align 8, !tbaa !11
  call void @llvm.lifetime.start.p0(i64 4, ptr %11) #7
  store i32 0, ptr %11, align 4, !tbaa !9
  br label %16

16:                                               ; preds = %54, %4
  %17 = load i32, ptr %11, align 4, !tbaa !9
  %18 = load i32, ptr %8, align 4, !tbaa !9
  %19 = icmp ule i32 %17, %18
  br i1 %19, label %20, label %57

20:                                               ; preds = %16
  call void @llvm.lifetime.start.p0(i64 4, ptr %12) #7
  %21 = load ptr, ptr %5, align 8, !tbaa !19
  %22 = load i32, ptr %11, align 4, !tbaa !9
  %23 = zext i32 %22 to i64
  %24 = getelementptr inbounds nuw i16, ptr %21, i64 %23
  %25 = load i16, ptr %24, align 2, !tbaa !25
  %26 = sext i16 %25 to i32
  %27 = icmp ne i32 %26, -1
  br i1 %27, label %28, label %35

28:                                               ; preds = %20
  %29 = load ptr, ptr %5, align 8, !tbaa !19
  %30 = load i32, ptr %11, align 4, !tbaa !9
  %31 = zext i32 %30 to i64
  %32 = getelementptr inbounds nuw i16, ptr %29, i64 %31
  %33 = load i16, ptr %32, align 2, !tbaa !25
  %34 = sext i16 %33 to i32
  br label %36

35:                                               ; preds = %20
  br label %36

36:                                               ; preds = %35, %28
  %37 = phi i32 [ %34, %28 ], [ 1, %35 ]
  store i32 %37, ptr %12, align 4, !tbaa !9
  call void @llvm.lifetime.start.p0(i64 4, ptr %13) #7
  %38 = load i32, ptr %12, align 4, !tbaa !9
  %39 = load i32, ptr %9, align 4, !tbaa !9
  %40 = shl i32 %38, %39
  store i32 %40, ptr %13, align 4, !tbaa !9
  %41 = load ptr, ptr %7, align 8, !tbaa !4
  %42 = load i32, ptr %11, align 4, !tbaa !9
  %43 = zext i32 %42 to i64
  %44 = getelementptr inbounds nuw i32, ptr %41, i64 %43
  %45 = load i32, ptr %44, align 4, !tbaa !9
  %46 = load i32, ptr %13, align 4, !tbaa !9
  %47 = zext i32 %46 to i64
  %48 = getelementptr inbounds nuw [256 x i32], ptr @kInverseProbabilityLog256, i64 0, i64 %47
  %49 = load i32, ptr %48, align 4, !tbaa !9
  %50 = mul i32 %45, %49
  %51 = zext i32 %50 to i64
  %52 = load i64, ptr %10, align 8, !tbaa !11
  %53 = add i64 %52, %51
  store i64 %53, ptr %10, align 8, !tbaa !11
  call void @llvm.lifetime.end.p0(i64 4, ptr %13) #7
  call void @llvm.lifetime.end.p0(i64 4, ptr %12) #7
  br label %54

54:                                               ; preds = %36
  %55 = load i32, ptr %11, align 4, !tbaa !9
  %56 = add i32 %55, 1
  store i32 %56, ptr %11, align 4, !tbaa !9
  br label %16, !llvm.loop !27

57:                                               ; preds = %16
  %58 = load i64, ptr %10, align 8, !tbaa !11
  %59 = lshr i64 %58, 8
  call void @llvm.lifetime.end.p0(i64 4, ptr %11) #7
  call void @llvm.lifetime.end.p0(i64 8, ptr %10) #7
  call void @llvm.lifetime.end.p0(i64 4, ptr %9) #7
  ret i64 %59
}